target datalayout = "e-m:e-p270:32:32-p271:32:32-p272:64:64-i64:64-i128:128-f80:128-n8:16:32:64-S128"
target triple = "x86_64-pc-linux-gnu"

%struct.H5HF_t = type { ptr, ptr }
%struct.H5HF_hdr_t = type { %struct.H5C_cache_entry_t, i32, i32, i8, i8, i8, i8, %struct.H5HF_dtable_t, i64, i64, i32, i64, i64, %struct.H5O_pline_t, i64, i32, i64, i64, i64, i64, i64, i64, i64, i64, i64, i64, i64, i32, ptr, i64, i8, i8, i8, ptr, i32, ptr, %struct.H5HF_block_iter_t, ptr, i64, i8, i8, i64, i8, i8, i8, i8 }
%struct.H5C_cache_entry_t = type { ptr, i64, i64, ptr, i8, ptr, i8, i8, i8, i8, i32, i8, i8, i8, i8, i8, i32, ptr, i32, i32, i32, i32, i32, i8, i8, ptr, ptr, ptr, ptr, ptr, ptr, i8, i32, i8, i64, ptr, i64, i64, i32, i8, i32, i32, i8, ptr, ptr, ptr }
%struct.H5HF_dtable_t = type { %struct.H5HF_dtable_cparam_t, i64, i32, i32, i32, i32, i32, i32, i32, i64, ptr, ptr, ptr, ptr }
%struct.H5HF_dtable_cparam_t = type { i32, i64, i64, i32, i32 }
%struct.H5O_pline_t = type { %struct.H5O_shared_t, i32, i64, i64, ptr }
%struct.H5O_shared_t = type { i32, ptr, i32, %union.anon }
%union.anon = type { %struct.H5O_mesg_loc_t }
%struct.H5O_mesg_loc_t = type { i32, i64 }
%struct.H5HF_block_iter_t = type { i8, ptr }

@H5HF_init_g = global i8 0, align 1
@H5_libterm_g = external global i8, align 1
@.str = private unnamed_addr constant [98 x i8] c"generated/home/dtcxzyw/WorkSpace/Projects/compilers/llvm-opt-benchmark/bench/hdf5/hdf5/src/H5HF.c\00", align 1
@H5E_HEAP_g = external global i64, align 8
@__func__.H5HF_insert = private unnamed_addr constant [12 x i8] c"H5HF_insert\00", align 1
@H5E_BADRANGE_g = external global i64, align 8
@.str.9 = private unnamed_addr constant [29 x i8] c"can't insert 0-sized objects\00", align 1
@H5E_CANTINSERT_g = external global i64, align 8
@.str.10 = private unnamed_addr constant [42 x i8] c"can't store 'huge' object in fractal heap\00", align 1
@.str.11 = private unnamed_addr constant [42 x i8] c"can't store 'tiny' object in fractal heap\00", align 1
@H5E_UNSUPPORTED_g = external global i64, align 8
@.str.12 = private unnamed_addr constant [46 x i8] c"'write once' managed blocks not supported yet\00", align 1
@.str.13 = private unnamed_addr constant [45 x i8] c"can't store 'managed' object in fractal heap\00", align 1

; Function Attrs: nounwind uwtable
define i32 @H5HF_insert(ptr noundef %0, i64 noundef %1, ptr noundef %2, ptr noundef %3) #0 {
  %5 = alloca ptr, align 8
  %6 = alloca i64, align 8
  %7 = alloca ptr, align 8
  %8 = alloca ptr, align 8
  %9 = alloca ptr, align 8
  %10 = alloca i32, align 4
  %11 = alloca i8, align 1
  store ptr %0, ptr %5, align 8, !tbaa !17
  store i64 %1, ptr %6, align 8, !tbaa !7
  store ptr %2, ptr %7, align 8, !tbaa !3
  store ptr %3, ptr %8, align 8, !tbaa !3
  call void @llvm.lifetime.start.p0(i64 8, ptr %9) #6
  store ptr null, ptr %9, align 8, !tbaa !19
  call void @llvm.lifetime.start.p0(i64 4, ptr %10) #6
  store i32 0, ptr %10, align 4, !tbaa !24
  call void @llvm.lifetime.start.p0(i64 1, ptr %11) #6
  store i8 0, ptr %11, align 1, !tbaa !9
  %12 = load i8, ptr @H5HF_init_g, align 1, !tbaa !9, !range !11, !noundef !12
  %13 = trunc i8 %12 to i1
  br i1 %13, label %18, label %14

14:                                               ; preds = %4
  %15 = load i8, ptr @H5_libterm_g, align 1, !tbaa !9, !range !11, !noundef !12
  %16 = trunc i8 %15 to i1
  %17 = xor i1 %16, true
  br label %18

18:                                               ; preds = %14, %4
  %19 = phi i1 [ false, %4 ], [ %17, %14 ]
  %20 = xor i1 %19, true
  %21 = xor i1 %20, true
  %22 = zext i1 %21 to i32
  %23 = sext i32 %22 to i64
  %24 = call i64 @llvm.expect.i64(i64 %23, i64 0)
  %25 = icmp ne i64 %24, 0
  br i1 %25, label %26, label %27

26:                                               ; preds = %18
  store i8 1, ptr @H5HF_init_g, align 1, !tbaa !9
  br label %27

27:                                               ; preds = %26, %18
  %28 = load i8, ptr @H5HF_init_g, align 1, !tbaa !9, !range !11, !noundef !12
  %29 = trunc i8 %28 to i1
  br i1 %29, label %34, label %30

30:                                               ; preds = %27
  %31 = load i8, ptr @H5_libterm_g, align 1, !tbaa !9, !range !11, !noundef !12
  %32 = trunc i8 %31 to i1
  %33 = xor i1 %32, true
  br label %34

34:                                               ; preds = %30, %27
  %35 = phi i1 [ true, %27 ], [ %33, %30 ]
  %36 = xor i1 %35, true
  %37 = xor i1 %36, true
  %38 = zext i1 %37 to i32
  %39 = sext i32 %38 to i64
  %40 = call i64 @llvm.expect.i64(i64 %39, i64 1)
  %41 = icmp ne i64 %40, 0
  br i1 %41, label %42, label %196

42:                                               ; preds = %34
  %43 = load i64, ptr %6, align 8, !tbaa !7
  %44 = icmp eq i64 %43, 0
  br i1 %44, label %45, label %64

45:                                               ; preds = %42
  br label %46

46:                                               ; preds = %45
  br label %47

47:                                               ; preds = %46
  br label %48

48:                                               ; preds = %47
  %49 = load i64, ptr @H5E_HEAP_g, align 8, !tbaa !7
  %50 = load i64, ptr @H5E_BADRANGE_g, align 8, !tbaa !7
  %51 = call i32 (ptr, ptr, i32, i64, i64, ptr, ...) @H5E_printf_stack(ptr noundef @.str, ptr noundef @__func__.H5HF_insert, i32 noundef 326, i64 noundef %49, i64 noundef %50, ptr noundef @.str.9)
  br label %52

52:                                               ; preds = %48
  br label %53

53:                                               ; preds = %52
  store i8 1, ptr %11, align 1, !tbaa !9
  %54 = load i8, ptr %11, align 1, !tbaa !9, !range !11, !noundef !12
  %55 = trunc i8 %54 to i1
  %56 = zext i1 %55 to i8
  store i8 %56, ptr %11, align 1, !tbaa !9
  br label %57

57:                                               ; preds = %53
  br label %58

58:                                               ; preds = %57
  br label %59

59:                                               ; preds = %58
  store i32 -1, ptr %10, align 4, !tbaa !24
  br label %195

60:                                               ; No predecessors!
  br label %61

61:                                               ; preds = %60
  br label %62

62:                                               ; preds = %61
  br label %63

63:                                               ; preds = %62
  br label %64

64:                                               ; preds = %63, %42
  %65 = load ptr, ptr %5, align 8, !tbaa !17
  %66 = getelementptr inbounds nuw %struct.H5HF_t, ptr %65, i32 0, i32 1
  %67 = load ptr, ptr %66, align 8, !tbaa !23
  %68 = load ptr, ptr %5, align 8, !tbaa !17
  %69 = getelementptr inbounds nuw %struct.H5HF_t, ptr %68, i32 0, i32 0
  %70 = load ptr, ptr %69, align 8, !tbaa !21
  %71 = getelementptr inbounds nuw %struct.H5HF_hdr_t, ptr %70, i32 0, i32 28
  store ptr %67, ptr %71, align 8, !tbaa !26
  %72 = load ptr, ptr %5, align 8, !tbaa !17
  %73 = getelementptr inbounds nuw %struct.H5HF_t, ptr %72, i32 0, i32 0
  %74 = load ptr, ptr %73, align 8, !tbaa !21
  store ptr %74, ptr %9, align 8, !tbaa !19
  %75 = load i64, ptr %6, align 8, !tbaa !7
  %76 = load ptr, ptr %9, align 8, !tbaa !19
  %77 = getelementptr inbounds nuw %struct.H5HF_hdr_t, ptr %76, i32 0, i32 10
  %78 = load i32, ptr %77, align 8, !tbaa !49
  %79 = zext i32 %78 to i64
  %80 = icmp ugt i64 %75, %79
  br i1 %80, label %81, label %108

81:                                               ; preds = %64
  %82 = load ptr, ptr %9, align 8, !tbaa !19
  %83 = load i64, ptr %6, align 8, !tbaa !7
  %84 = load ptr, ptr %7, align 8, !tbaa !3
  %85 = load ptr, ptr %8, align 8, !tbaa !3
  %86 = call i32 @H5HF__huge_insert(ptr noundef %82, i64 noundef %83, ptr noundef %84, ptr noundef %85)
  %87 = icmp slt i32 %86, 0
  br i1 %87, label %88, label %107

88:                                               ; preds = %81
  br label %89

89:                                               ; preds = %88
  br label %90

90:                                               ; preds = %89
  br label %91

91:                                               ; preds = %90
  %92 = load i64, ptr @H5E_HEAP_g, align 8, !tbaa !7
  %93 = load i64, ptr @H5E_CANTINSERT_g, align 8, !tbaa !7
  %94 = call i32 (ptr, ptr, i32, i64, i64, ptr, ...) @H5E_printf_stack(ptr noundef @.str, ptr noundef @__func__.H5HF_insert, i32 noundef 343, i64 noundef %92, i64 noundef %93, ptr noundef @.str.10)
  br label %95

95:                                               ; preds = %91
  br label %96

96:                                               ; preds = %95
  store i8 1, ptr %11, align 1, !tbaa !9
  %97 = load i8, ptr %11, align 1, !tbaa !9, !range !11, !noundef !12
  %98 = trunc i8 %97 to i1
  %99 = zext i1 %98 to i8
  store i8 %99, ptr %11, align 1, !tbaa !9
  br label %100

100:                                              ; preds = %96
  br label %101

101:                                              ; preds = %100
  br label %102

102:                                              ; preds = %101
  store i32 -1, ptr %10, align 4, !tbaa !24
  br label %195

103:                                              ; No predecessors!
  br label %104

104:                                              ; preds = %103
  br label %105

105:                                              ; preds = %104
  br label %106

106:                                              ; preds = %105
  br label %107

107:                                              ; preds = %106, %81
  br label %194

108:                                              ; preds = %64
  %109 = load i64, ptr %6, align 8, !tbaa !7
  %110 = load ptr, ptr %9, align 8, !tbaa !19
  %111 = getelementptr inbounds nuw %struct.H5HF_hdr_t, ptr %110, i32 0, i32 41
  %112 = load i64, ptr %111, align 8, !tbaa !50
  %113 = icmp ule i64 %109, %112
  br i1 %113, label %114, label %141

114:                                              ; preds = %108
  %115 = load ptr, ptr %9, align 8, !tbaa !19
  %116 = load i64, ptr %6, align 8, !tbaa !7
  %117 = load ptr, ptr %7, align 8, !tbaa !3
  %118 = load ptr, ptr %8, align 8, !tbaa !3
  %119 = call i32 @H5HF__tiny_insert(ptr noundef %115, i64 noundef %116, ptr noundef %117, ptr noundef %118)
  %120 = icmp slt i32 %119, 0
  br i1 %120, label %121, label %140

121:                                              ; preds = %114
  br label %122

122:                                              ; preds = %121
  br label %123

123:                                              ; preds = %122
  br label %124

124:                                              ; preds = %123
  %125 = load i64, ptr @H5E_HEAP_g, align 8, !tbaa !7
  %126 = load i64, ptr @H5E_CANTINSERT_g, align 8, !tbaa !7
  %127 = call i32 (ptr, ptr, i32, i64, i64, ptr, ...) @H5E_printf_stack(ptr noundef @.str, ptr noundef @__func__.H5HF_insert, i32 noundef 350, i64 noundef %125, i64 noundef %126, ptr noundef @.str.11)
  br label %128

128:                                              ; preds = %124
  br label %129

129:                                              ; preds = %128
  store i8 1, ptr %11, align 1, !tbaa !9
  %130 = load i8, ptr %11, align 1, !tbaa !9, !range !11, !noundef !12
  %131 = trunc i8 %130 to i1
  %132 = zext i1 %131 to i8
  store i8 %132, ptr %11, align 1, !tbaa !9
  br label %133

133:                                              ; preds = %129
  br label %134

134:                                              ; preds = %133
  br label %135

135:                                              ; preds = %134
  store i32 -1, ptr %10, align 4, !tbaa !24
  br label %195

136:                                              ; No predecessors!
  br label %137

137:                                              ; preds = %136
  br label %138

138:                                              ; preds = %137
  br label %139

139:                                              ; preds = %138
  br label %140

140:                                              ; preds = %139, %114
  br label %193

141:                                              ; preds = %108
  %142 = load ptr, ptr %9, align 8, !tbaa !19
  %143 = getelementptr inbounds nuw %struct.H5HF_hdr_t, ptr %142, i32 0, i32 4
  %144 = load i8, ptr %143, align 1, !tbaa !51, !range !11, !noundef !12
  %145 = trunc i8 %144 to i1
  br i1 %145, label %146, label %165

146:                                              ; preds = %141
  br label %147

147:                                              ; preds = %146
  br label %148

148:                                              ; preds = %147
  br label %149

149:                                              ; preds = %148
  %150 = load i64, ptr @H5E_HEAP_g, align 8, !tbaa !7
  %151 = load i64, ptr @H5E_UNSUPPORTED_g, align 8, !tbaa !7
  %152 = call i32 (ptr, ptr, i32, i64, i64, ptr, ...) @H5E_printf_stack(ptr noundef @.str, ptr noundef @__func__.H5HF_insert, i32 noundef 355, i64 noundef %150, i64 noundef %151, ptr noundef @.str.12)
  br label %153

153:                                              ; preds = %149
  br label %154

154:                                              ; preds = %153
  store i8 1, ptr %11, align 1, !tbaa !9
  %155 = load i8, ptr %11, align 1, !tbaa !9, !range !11, !noundef !12
  %156 = trunc i8 %155 to i1
  %157 = zext i1 %156 to i8
  store i8 %157, ptr %11, align 1, !tbaa !9
  br label %158

158:                                              ; preds = %154
  br label %159

159:                                              ; preds = %158
  br label %160

160:                                              ; preds = %159
  store i32 -1, ptr %10, align 4, !tbaa !24
  br label %195

161:                                              ; No predecessors!
  br label %162

162:                                              ; preds = %161
  br label %163

163:                                              ; preds = %162
  br label %164

164:                                              ; preds = %163
  br label %192

165:                                              ; preds = %141
  %166 = load ptr, ptr %9, align 8, !tbaa !19
  %167 = load i64, ptr %6, align 8, !tbaa !7
  %168 = load ptr, ptr %7, align 8, !tbaa !3
  %169 = load ptr, ptr %8, align 8, !tbaa !3
  %170 = call i32 @H5HF__man_insert(ptr noundef %166, i64 noundef %167, ptr noundef %168, ptr noundef %169)
  %171 = icmp slt i32 %170, 0
  br i1 %171, label %172, label %191

172:                                              ; preds = %165
  br label %173

173:                                              ; preds = %172
  br label %174

174:                                              ; preds = %173
  br label %175

175:                                              ; preds = %174
  %176 = load i64, ptr @H5E_HEAP_g, align 8, !tbaa !7
  %177 = load i64, ptr @H5E_CANTINSERT_g, align 8, !tbaa !7
  %178 = call i32 (ptr, ptr, i32, i64, i64, ptr, ...) @H5E_printf_stack(ptr noundef @.str, ptr noundef @__func__.H5HF_insert, i32 noundef 360, i64 noundef %176, i64 noundef %177, ptr noundef @.str.13)
  br label %179

179:                                              ; preds = %175
  br label %180

180:                                              ; preds = %179
  store i8 1, ptr %11, align 1, !tbaa !9
  %181 = load i8, ptr %11, align 1, !tbaa !9, !range !11, !noundef !12
  %182 = trunc i8 %181 to i1
  %183 = zext i1 %182 to i8
  store i8 %183, ptr %11, align 1, !tbaa !9
  br label %184

184:                                              ; preds = %180
  br label %185

185:                                              ; preds = %184
  br label %186

186:                                              ; preds = %185
  store i32 -1, ptr %10, align 4, !tbaa !24
  br label %195

187:                                              ; No predecessors!
  br label %188

188:                                              ; preds = %187
  br label %189

189:                                              ; preds = %188
  br label %190

190:                                              ; preds = %189
  br label %191

191:                                              ; preds = %190, %165
  br label %192

192:                                              ; preds = %191, %164
  br label %193

193:                                              ; preds = %192, %140
  br label %194

194:                                              ; preds = %193, %107
  br label %195

195:                                              ; preds = %194, %186, %160, %135, %102, %59
  br label %196

196:                                              ; preds = %195, %34
  %197 = load i32, ptr %10, align 4, !tbaa !24
  call void @llvm.lifetime.end.p0(i64 1, ptr %11) #6
  call void @llvm.lifetime.end.p0(i64 4, ptr %10) #6
  call void @llvm.lifetime.end.p0(i64 8, ptr %9) #6
  ret i32 %197
}