; Function Attrs: nounwind uwtable
define range(i32 -1, 1) i32 @H5HF_insert(ptr noundef readonly captures(none) %0, i64 noundef %1, ptr noundef %2, ptr noundef %3) local_unnamed_addr #2 {
  %5 = load i8, ptr @H5HF_init_g, align 1, !tbaa !3, !range !7, !noundef !8
  %6 = trunc nuw i8 %5 to i1
  %7 = load i8, ptr @H5_libterm_g, align 1, !range !7
  %8 = trunc nuw i8 %7 to i1
  %9 = select i1 %6, i1 true, i1 %8
  br i1 %9, label %10, label %.thread, !prof !9

.thread:                                          ; preds = %4
  store i8 1, ptr @H5HF_init_g, align 1, !tbaa !3
  br label %13

10:                                               ; preds = %4
  %11 = xor i1 %8, true
  %12 = select i1 %6, i1 true, i1 %11
  br i1 %12, label %13, label %60, !prof !10

13:                                               ; preds = %.thread, %10
  %14 = icmp eq i64 %1, 0
  br i1 %14, label %15, label %19

15:                                               ; preds = %13
  %16 = load i64, ptr @H5E_HEAP_g, align 8, !tbaa !11
  %17 = load i64, ptr @H5E_BADRANGE_g, align 8, !tbaa !11
  %18 = tail call i32 (ptr, ptr, i32, i64, i64, ptr, ...) @H5E_printf_stack(ptr noundef nonnull @.str, ptr noundef nonnull @__func__.H5HF_insert, i32 noundef 326, i64 noundef %16, i64 noundef %17, ptr noundef nonnull @.str.9) #5
  br label %60

19:                                               ; preds = %13
  %20 = getelementptr inbounds nuw i8, ptr %0, i64 8
  %21 = load ptr, ptr %20, align 8, !tbaa !18
  %22 = load ptr, ptr %0, align 8, !tbaa !13
  %23 = getelementptr inbounds nuw i8, ptr %22, i64 600
  store ptr %21, ptr %23, align 8, !tbaa !19
  %24 = getelementptr inbounds nuw i8, ptr %22, i64 392
  %25 = load i32, ptr %24, align 8, !tbaa !42
  %26 = zext i32 %25 to i64
  %27 = icmp ugt i64 %1, %26
  br i1 %27, label %28, label %35

28:                                               ; preds = %19
  %29 = tail call i32 @H5HF__huge_insert(ptr noundef nonnull %22, i64 noundef %1, ptr noundef %2, ptr noundef %3) #5
  %30 = icmp slt i32 %29, 0
  br i1 %30, label %31, label %60

31:                                               ; preds = %28
  %32 = load i64, ptr @H5E_HEAP_g, align 8, !tbaa !11
  %33 = load i64, ptr @H5E_CANTINSERT_g, align 8, !tbaa !11
  %34 = tail call i32 (ptr, ptr, i32, i64, i64, ptr, ...) @H5E_printf_stack(ptr noundef nonnull @.str, ptr noundef nonnull @__func__.H5HF_insert, i32 noundef 343, i64 noundef %32, i64 noundef %33, ptr noundef nonnull @.str.10) #5
  br label %60

35:                                               ; preds = %19
  %36 = getelementptr inbounds nuw i8, ptr %22, i64 688
  %37 = load i64, ptr %36, align 8, !tbaa !43
  %.not = icmp ugt i64 %1, %37
  br i1 %.not, label %45, label %38

38:                                               ; preds = %35
  %39 = tail call i32 @H5HF__tiny_insert(ptr noundef nonnull %22, i64 noundef %1, ptr noundef %2, ptr noundef %3) #5
  %40 = icmp slt i32 %39, 0
  br i1 %40, label %41, label %60

41:                                               ; preds = %38
  %42 = load i64, ptr @H5E_HEAP_g, align 8, !tbaa !11
  %43 = load i64, ptr @H5E_CANTINSERT_g, align 8, !tbaa !11
  %44 = tail call i32 (ptr, ptr, i32, i64, i64, ptr, ...) @H5E_printf_stack(ptr noundef nonnull @.str, ptr noundef nonnull @__func__.H5HF_insert, i32 noundef 350, i64 noundef %42, i64 noundef %43, ptr noundef nonnull @.str.11) #5
  br label %60

45:                                               ; preds = %35
  %46 = getelementptr inbounds nuw i8, ptr %22, i64 257
  %47 = load i8, ptr %46, align 1, !tbaa !44, !range !7, !noundef !8
  %48 = trunc nuw i8 %47 to i1
  br i1 %48, label %49, label %53

49:                                               ; preds = %45
  %50 = load i64, ptr @H5E_HEAP_g, align 8, !tbaa !11
  %51 = load i64, ptr @H5E_UNSUPPORTED_g, align 8, !tbaa !11
  %52 = tail call i32 (ptr, ptr, i32, i64, i64, ptr, ...) @H5E_printf_stack(ptr noundef nonnull @.str, ptr noundef nonnull @__func__.H5HF_insert, i32 noundef 355, i64 noundef %50, i64 noundef %51, ptr noundef nonnull @.str.12) #5
  br label %60

53:                                               ; preds = %45
  %54 = tail call i32 @H5HF__man_insert(ptr noundef nonnull %22, i64 noundef %1, ptr noundef %2, ptr noundef %3) #5
  %55 = icmp slt i32 %54, 0
  br i1 %55, label %56, label %60

56:                                               ; preds = %53
  %57 = load i64, ptr @H5E_HEAP_g, align 8, !tbaa !11
  %58 = load i64, ptr @H5E_CANTINSERT_g, align 8, !tbaa !11
  %59 = tail call i32 (ptr, ptr, i32, i64, i64, ptr, ...) @H5E_printf_stack(ptr noundef nonnull @.str, ptr noundef nonnull @__func__.H5HF_insert, i32 noundef 360, i64 noundef %57, i64 noundef %58, ptr noundef nonnull @.str.13) #5
  br label %60

60:                                               ; preds = %15, %31, %41, %49, %56, %38, %53, %28, %10
  %.0 = phi i32 [ -1, %15 ], [ -1, %31 ], [ 0, %28 ], [ -1, %41 ], [ 0, %38 ], [ -1, %49 ], [ -1, %56 ], [ 0, %53 ], [ 0, %10 ]
  ret i32 %.0
}